; Function Attrs: mustprogress nofree norecurse nosync nounwind willreturn memory(argmem: write) uwtable
define dso_local void @_ZN3igl7BBWDataC2Ev(ptr noundef nonnull writeonly align 8 captures(none) dereferenceable(68) initializes((0, 1), (8, 33), (36, 68)) %0) unnamed_addr #0 align 2 personality ptr @__gxx_personality_v0 {
  store i8 0, ptr %0, align 8, !tbaa !4
  %2 = getelementptr inbounds nuw i8, ptr %0, i64 8
  %3 = getelementptr inbounds nuw i8, ptr %0, i64 32
  %4 = getelementptr inbounds nuw i8, ptr %0, i64 36
  tail call void @llvm.memset.p0.i64(ptr noundef nonnull align 8 dereferenceable(24) %2, i8 0, i64 24, i1 false)
  store i32 100, ptr %4, align 4, !tbaa !18
  %5 = getelementptr inbounds nuw i8, ptr %0, i64 40
  store double 0x3D06849B86A12B9B, ptr %5, align 8, !tbaa !19
  %6 = getelementptr inbounds nuw i8, ptr %0, i64 48
  store double 0x3D06849B86A12B9B, ptr %6, align 8, !tbaa !20
  %7 = getelementptr inbounds nuw i8, ptr %0, i64 56
  store double 0x3D06849B86A12B9B, ptr %7, align 8, !tbaa !21
  %8 = getelementptr inbounds nuw i8, ptr %0, i64 64
  store i32 0, ptr %8, align 8, !tbaa !22
  store i8 1, ptr %3, align 8, !tbaa !23
  ret void
}